(dp0
S'bparams'
p1
((dp2
S'epochs'
p3
I50
sS'neurons'
p4
I32
s(dp5
g3
I50
sg4
I64
s(dp6
g3
I50
sg4
I128
s(dp7
g3
I50
sg4
I256
s(dp8
g3
I100
sg4
I32
s(dp9
g3
I100
sg4
I64
s(dp10
g3
I100
sg4
I128
s(dp11
g3
I100
sg4
I256
s(dp12
g3
I200
sg4
I32
s(dp13
g3
I200
sg4
I64
s(dp14
g3
I200
sg4
I128
s(dp15
g3
I200
sg4
I256
stp16
sS'bstds'
p17
cnumpy.core.multiarray
_reconstruct
p18
(cnumpy
ndarray
p19
(I0
tp20
S'b'
p21
tp22
Rp23
(I1
(I12
tp24
cnumpy
dtype
p25
(S'f8'
p26
I0
I1
tp27
Rp28
(I3
S'<'
p29
NNNI-1
I-1
I0
tp30
bI00
S'Y\x7fV;\xf2B\x10@ (\xb4\xc0r`\x08@\x12\x05\x9c\x8a\x1d=\x0e@\xec\xc3\x05\xbb\xb8\xdc\r@%<\x17F\xb9\x0f\r@I\xc9Km\xa4!\x0f@\xa9\xa8\x92/}C\x05@C>\xce\xe5\xa7T\x03@?\xdc\xf6\xa5\x01*\x12@c\xb2\x1fO\x18Y\x0e@\xd6\xac\xf7\x91\xbc\x08\x15@\xf3waI{\xcb\x0e@'
p31
tp32
bsg21
S"\n label - b - Best: 5.258532 using {'epochs': 200, 'neurons': 128}"
p33
sS'bmean'
p34
g23
s.